target datalayout = "e-m:e-p270:32:32-p271:32:32-p272:64:64-i64:64-i128:128-f80:128-n8:16:32:64-S128"
target triple = "x86_64-pc-linux-gnu"

%struct.ImVec4 = type { float, float, float, float }
%struct.ImVector = type { i32, i32, ptr }
%struct.ImDrawCmd = type { %struct.ImVec4, ptr, i32, i32, i32, ptr, ptr }
%struct.ImDrawList = type { %struct.ImVector.0, %struct.ImVector.1, %struct.ImVector.2, i32, i32, ptr, ptr, ptr, %struct.ImVector, %struct.ImDrawCmdHeader, %struct.ImDrawListSplitter, %struct.ImVector.4, %struct.ImVector.5, float, ptr }
%struct.ImVector.0 = type { i32, i32, ptr }
%struct.ImVector.1 = type { i32, i32, ptr }
%struct.ImVector.2 = type { i32, i32, ptr }
%struct.ImDrawCmdHeader = type <{ %struct.ImVec4, ptr, i32, [4 x i8] }>
%struct.ImDrawListSplitter = type { i32, i32, %struct.ImVector.3 }
%struct.ImVector.3 = type { i32, i32, ptr }
%struct.ImVector.4 = type { i32, i32, ptr }
%struct.ImVector.5 = type { i32, i32, ptr }

; Function Attrs: inlinehint mustprogress uwtable
define linkonce_odr dso_local void @_ZN8ImVectorI9ImDrawCmdE7reserveEi(ptr noundef nonnull align 8 dereferenceable(16) %0, i32 noundef %1) #5 comdat align 2 {
  %3 = alloca ptr, align 8
  %4 = alloca i32, align 4
  %5 = alloca ptr, align 8
  store ptr %0, ptr %3, align 8, !tbaa !89
  store i32 %1, ptr %4, align 4, !tbaa !21
  %6 = load ptr, ptr %3, align 8
  %7 = load i32, ptr %4, align 4, !tbaa !21
  %8 = getelementptr inbounds nuw %struct.ImVector.0, ptr %6, i32 0, i32 1
  %9 = load i32, ptr %8, align 4, !tbaa !91
  %10 = icmp sle i32 %7, %9
  br i1 %10, label %11, label %12

11:                                               ; preds = %2
  br label %35

12:                                               ; preds = %2
  call void @llvm.lifetime.start.p0(i64 8, ptr %5) #17
  %13 = load i32, ptr %4, align 4, !tbaa !21
  %14 = sext i32 %13 to i64
  %15 = mul i64 %14, 56
  %16 = call noundef ptr @_ZN5ImGui8MemAllocEm(i64 noundef %15)
  store ptr %16, ptr %5, align 8, !tbaa !71
  %17 = getelementptr inbounds nuw %struct.ImVector.0, ptr %6, i32 0, i32 2
  %18 = load ptr, ptr %17, align 8, !tbaa !110
  %19 = icmp ne ptr %18, null
  br i1 %19, label %20, label %30

20:                                               ; preds = %12
  %21 = load ptr, ptr %5, align 8, !tbaa !71
  %22 = getelementptr inbounds nuw %struct.ImVector.0, ptr %6, i32 0, i32 2
  %23 = load ptr, ptr %22, align 8, !tbaa !110
  %24 = getelementptr inbounds nuw %struct.ImVector.0, ptr %6, i32 0, i32 0
  %25 = load i32, ptr %24, align 8, !tbaa !92
  %26 = sext i32 %25 to i64
  %27 = mul i64 %26, 56
  call void @llvm.memcpy.p0.p0.i64(ptr align 8 %21, ptr align 8 %23, i64 %27, i1 false)
  %28 = getelementptr inbounds nuw %struct.ImVector.0, ptr %6, i32 0, i32 2
  %29 = load ptr, ptr %28, align 8, !tbaa !110
  call void @_ZN5ImGui7MemFreeEPv(ptr noundef %29)
  br label %30

30:                                               ; preds = %20, %12
  %31 = load ptr, ptr %5, align 8, !tbaa !71
  %32 = getelementptr inbounds nuw %struct.ImVector.0, ptr %6, i32 0, i32 2
  store ptr %31, ptr %32, align 8, !tbaa !110
  %33 = load i32, ptr %4, align 4, !tbaa !21
  %34 = getelementptr inbounds nuw %struct.ImVector.0, ptr %6, i32 0, i32 1
  store i32 %33, ptr %34, align 4, !tbaa !91
  call void @llvm.lifetime.end.p0(i64 8, ptr %5) #17
  br label %35

35:                                               ; preds = %30, %11
  ret void
}

; Function Attrs: inlinehint mustprogress nounwind uwtable
define linkonce_odr dso_local noundef i32 @_ZNK8ImVectorI9ImDrawCmdE14_grow_capacityEi(ptr noundef nonnull align 8 dereferenceable(16) %0, i32 noundef %1) #7 comdat align 2 {
  %3 = alloca ptr, align 8
  %4 = alloca i32, align 4
  %5 = alloca i32, align 4
  store ptr %0, ptr %3, align 8, !tbaa !89
  store i32 %1, ptr %4, align 4, !tbaa !21
  %6 = load ptr, ptr %3, align 8
  call void @llvm.lifetime.start.p0(i64 4, ptr %5) #17
  %7 = getelementptr inbounds nuw %struct.ImVector.0, ptr %6, i32 0, i32 1
  %8 = load i32, ptr %7, align 4, !tbaa !91
  %9 = icmp ne i32 %8, 0
  br i1 %9, label %10, label %17

10:                                               ; preds = %2
  %11 = getelementptr inbounds nuw %struct.ImVector.0, ptr %6, i32 0, i32 1
  %12 = load i32, ptr %11, align 4, !tbaa !91
  %13 = getelementptr inbounds nuw %struct.ImVector.0, ptr %6, i32 0, i32 1
  %14 = load i32, ptr %13, align 4, !tbaa !91
  %15 = sdiv i32 %14, 2
  %16 = add nsw i32 %12, %15
  br label %18

17:                                               ; preds = %2
  br label %18

18:                                               ; preds = %17, %10
  %19 = phi i32 [ %16, %10 ], [ 8, %17 ]
  store i32 %19, ptr %5, align 4, !tbaa !21
  %20 = load i32, ptr %5, align 4, !tbaa !21
  %21 = load i32, ptr %4, align 4, !tbaa !21
  %22 = icmp sgt i32 %20, %21
  br i1 %22, label %23, label %25

23:                                               ; preds = %18
  %24 = load i32, ptr %5, align 4, !tbaa !21
  br label %27

25:                                               ; preds = %18
  %26 = load i32, ptr %4, align 4, !tbaa !21
  br label %27

27:                                               ; preds = %25, %23
  %28 = phi i32 [ %24, %23 ], [ %26, %25 ]
  call void @llvm.lifetime.end.p0(i64 4, ptr %5) #17
  ret i32 %28
}

; Function Attrs: mustprogress nounwind uwtable
define linkonce_odr dso_local void @_ZN6ImVec4C2Ev(ptr noundef nonnull align 4 dereferenceable(16) %0) unnamed_addr #3 comdat align 2 {
  %2 = alloca ptr, align 8
  store ptr %0, ptr %2, align 8, !tbaa !9
  %3 = load ptr, ptr %2, align 8
  %4 = getelementptr inbounds nuw %struct.ImVec4, ptr %3, i32 0, i32 0
  store float 0.000000e+00, ptr %4, align 4, !tbaa !14
  %5 = getelementptr inbounds nuw %struct.ImVec4, ptr %3, i32 0, i32 1
  store float 0.000000e+00, ptr %5, align 4, !tbaa !16
  %6 = getelementptr inbounds nuw %struct.ImVec4, ptr %3, i32 0, i32 2
  store float 0.000000e+00, ptr %6, align 4, !tbaa !17
  %7 = getelementptr inbounds nuw %struct.ImVec4, ptr %3, i32 0, i32 3
  store float 0.000000e+00, ptr %7, align 4, !tbaa !18
  ret void
}

; Function Attrs: inlinehint mustprogress uwtable
define linkonce_odr dso_local void @_ZN8ImVectorI9ImDrawCmdE9push_backERKS0_(ptr noundef nonnull align 8 dereferenceable(16) %0, ptr noundef nonnull align 8 dereferenceable(56) %1) #5 comdat align 2 {
  %3 = alloca ptr, align 8
  %4 = alloca ptr, align 8
  store ptr %0, ptr %3, align 8, !tbaa !89
  store ptr %1, ptr %4, align 8, !tbaa !71
  %5 = load ptr, ptr %3, align 8
  %6 = getelementptr inbounds nuw %struct.ImVector.0, ptr %5, i32 0, i32 0
  %7 = load i32, ptr %6, align 8, !tbaa !92
  %8 = getelementptr inbounds nuw %struct.ImVector.0, ptr %5, i32 0, i32 1
  %9 = load i32, ptr %8, align 4, !tbaa !91
  %10 = icmp eq i32 %7, %9
  br i1 %10, label %11, label %16

11:                                               ; preds = %2
  %12 = getelementptr inbounds nuw %struct.ImVector.0, ptr %5, i32 0, i32 0
  %13 = load i32, ptr %12, align 8, !tbaa !92
  %14 = add nsw i32 %13, 1
  %15 = call noundef i32 @_ZNK8ImVectorI9ImDrawCmdE14_grow_capacityEi(ptr noundef nonnull align 8 dereferenceable(16) %5, i32 noundef %14)
  call void @_ZN8ImVectorI9ImDrawCmdE7reserveEi(ptr noundef nonnull align 8 dereferenceable(16) %5, i32 noundef %15)
  br label %16

16:                                               ; preds = %11, %2
  %17 = getelementptr inbounds nuw %struct.ImVector.0, ptr %5, i32 0, i32 2
  %18 = load ptr, ptr %17, align 8, !tbaa !110
  %19 = getelementptr inbounds nuw %struct.ImVector.0, ptr %5, i32 0, i32 0
  %20 = load i32, ptr %19, align 8, !tbaa !92
  %21 = sext i32 %20 to i64
  %22 = getelementptr inbounds %struct.ImDrawCmd, ptr %18, i64 %21
  %23 = load ptr, ptr %4, align 8, !tbaa !71
  call void @llvm.memcpy.p0.p0.i64(ptr align 8 %22, ptr align 8 %23, i64 56, i1 false)
  %24 = getelementptr inbounds nuw %struct.ImVector.0, ptr %5, i32 0, i32 0
  %25 = load i32, ptr %24, align 8, !tbaa !92
  %26 = add nsw i32 %25, 1
  store i32 %26, ptr %24, align 8, !tbaa !92
  ret void
}

; Function Attrs: mustprogress uwtable
define linkonce_odr dso_local void @_ZN9ImDrawCmdC2Ev(ptr noundef nonnull align 8 dereferenceable(56) %0) unnamed_addr #6 comdat align 2 {
  %2 = alloca ptr, align 8
  store ptr %0, ptr %2, align 8, !tbaa !71
  %3 = load ptr, ptr %2, align 8
  %4 = getelementptr inbounds nuw %struct.ImDrawCmd, ptr %3, i32 0, i32 0
  call void @_ZN6ImVec4C2Ev(ptr noundef nonnull align 4 dereferenceable(16) %4)
  call void @llvm.memset.p0.i64(ptr align 8 %3, i8 0, i64 56, i1 false)
  ret void
}

; Function Attrs: inlinehint mustprogress nounwind uwtable
define linkonce_odr dso_local void @_ZN8ImVectorI9ImDrawCmdE8pop_backEv(ptr noundef nonnull align 8 dereferenceable(16) %0) #7 comdat align 2 {
  %2 = alloca ptr, align 8
  store ptr %0, ptr %2, align 8, !tbaa !89
  %3 = load ptr, ptr %2, align 8
  %4 = getelementptr inbounds nuw %struct.ImVector.0, ptr %3, i32 0, i32 0
  %5 = load i32, ptr %4, align 8, !tbaa !92
  %6 = add nsw i32 %5, -1
  store i32 %6, ptr %4, align 8, !tbaa !92
  ret void
}

; Function Attrs: mustprogress uwtable
define dso_local void @_ZN10ImDrawList10AddDrawCmdEv(ptr noundef nonnull align 8 dereferenceable(200) %0) #6 align 2 {
  %2 = alloca ptr, align 8
  %3 = alloca %struct.ImDrawCmd, align 8
  store ptr %0, ptr %2, align 8, !tbaa !43
  %4 = load ptr, ptr %2, align 8
  call void @llvm.lifetime.start.p0(i64 56, ptr %3) #17
  call void @_ZN9ImDrawCmdC2Ev(ptr noundef nonnull align 8 dereferenceable(56) %3)
  %5 = getelementptr inbounds nuw %struct.ImDrawList, ptr %4, i32 0, i32 9
  %6 = getelementptr inbounds nuw %struct.ImDrawCmdHeader, ptr %5, i32 0, i32 0
  %7 = getelementptr inbounds nuw %struct.ImDrawCmd, ptr %3, i32 0, i32 0
  call void @llvm.memcpy.p0.p0.i64(ptr align 8 %7, ptr align 8 %6, i64 16, i1 false), !tbaa.struct !11
  %8 = getelementptr inbounds nuw %struct.ImDrawList, ptr %4, i32 0, i32 9
  %9 = getelementptr inbounds nuw %struct.ImDrawCmdHeader, ptr %8, i32 0, i32 1
  %10 = load ptr, ptr %9, align 8, !tbaa !120
  %11 = getelementptr inbounds nuw %struct.ImDrawCmd, ptr %3, i32 0, i32 1
  store ptr %10, ptr %11, align 8, !tbaa !121
  %12 = getelementptr inbounds nuw %struct.ImDrawList, ptr %4, i32 0, i32 9
  %13 = getelementptr inbounds nuw %struct.ImDrawCmdHeader, ptr %12, i32 0, i32 2
  %14 = load i32, ptr %13, align 8, !tbaa !122
  %15 = getelementptr inbounds nuw %struct.ImDrawCmd, ptr %3, i32 0, i32 2
  store i32 %14, ptr %15, align 8, !tbaa !123
  %16 = getelementptr inbounds nuw %struct.ImDrawList, ptr %4, i32 0, i32 1
  %17 = getelementptr inbounds nuw %struct.ImVector.1, ptr %16, i32 0, i32 0
  %18 = load i32, ptr %17, align 8, !tbaa !83
  %19 = getelementptr inbounds nuw %struct.ImDrawCmd, ptr %3, i32 0, i32 3
  store i32 %18, ptr %19, align 4, !tbaa !72
  %20 = getelementptr inbounds nuw %struct.ImDrawList, ptr %4, i32 0, i32 0
  call void @_ZN8ImVectorI9ImDrawCmdE9push_backERKS0_(ptr noundef nonnull align 8 dereferenceable(16) %20, ptr noundef nonnull align 8 dereferenceable(56) %3)
  call void @llvm.lifetime.end.p0(i64 56, ptr %3) #17
  ret void
}

; Function Attrs: mustprogress uwtable
define dso_local void @_ZN10ImDrawList18_OnChangedClipRectEv(ptr noundef nonnull align 8 dereferenceable(200) %0) #6 align 2 {
  %2 = alloca ptr, align 8
  %3 = alloca ptr, align 8
  %4 = alloca i32, align 4
  %5 = alloca ptr, align 8
  store ptr %0, ptr %2, align 8, !tbaa !43
  %6 = load ptr, ptr %2, align 8
  call void @llvm.lifetime.start.p0(i64 8, ptr %3) #17
  %7 = getelementptr inbounds nuw %struct.ImDrawList, ptr %6, i32 0, i32 0
  %8 = getelementptr inbounds nuw %struct.ImVector.0, ptr %7, i32 0, i32 2
  %9 = load ptr, ptr %8, align 8, !tbaa !84
  %10 = getelementptr inbounds nuw %struct.ImDrawList, ptr %6, i32 0, i32 0
  %11 = getelementptr inbounds nuw %struct.ImVector.0, ptr %10, i32 0, i32 0
  %12 = load i32, ptr %11, align 8, !tbaa !70
  %13 = sub nsw i32 %12, 1
  %14 = sext i32 %13 to i64
  %15 = getelementptr inbounds %struct.ImDrawCmd, ptr %9, i64 %14
  store ptr %15, ptr %3, align 8, !tbaa !71
  %16 = load ptr, ptr %3, align 8, !tbaa !71
  %17 = getelementptr inbounds nuw %struct.ImDrawCmd, ptr %16, i32 0, i32 4
  %18 = load i32, ptr %17, align 8, !tbaa !74
  %19 = icmp ne i32 %18, 0
  br i1 %19, label %20, label %28

20:                                               ; preds = %1
  %21 = load ptr, ptr %3, align 8, !tbaa !71
  %22 = getelementptr inbounds nuw %struct.ImDrawCmd, ptr %21, i32 0, i32 0
  %23 = getelementptr inbounds nuw %struct.ImDrawList, ptr %6, i32 0, i32 9
  %24 = getelementptr inbounds nuw %struct.ImDrawCmdHeader, ptr %23, i32 0, i32 0
  %25 = call i32 @memcmp(ptr noundef %22, ptr noundef %24, i64 noundef 16) #19
  %26 = icmp ne i32 %25, 0
  br i1 %26, label %27, label %28

27:                                               ; preds = %20
  call void @_ZN10ImDrawList10AddDrawCmdEv(ptr noundef nonnull align 8 dereferenceable(200) %6)
  store i32 1, ptr %4, align 4
  br label %70

28:                                               ; preds = %20, %1
  call void @llvm.lifetime.start.p0(i64 8, ptr %5) #17
  %29 = load ptr, ptr %3, align 8, !tbaa !71
  %30 = getelementptr inbounds %struct.ImDrawCmd, ptr %29, i64 -1
  store ptr %30, ptr %5, align 8, !tbaa !71
  %31 = load ptr, ptr %3, align 8, !tbaa !71
  %32 = getelementptr inbounds nuw %struct.ImDrawCmd, ptr %31, i32 0, i32 4
  %33 = load i32, ptr %32, align 8, !tbaa !74
  %34 = icmp eq i32 %33, 0
  br i1 %34, label %35, label %64

35:                                               ; preds = %28
  %36 = getelementptr inbounds nuw %struct.ImDrawList, ptr %6, i32 0, i32 0
  %37 = getelementptr inbounds nuw %struct.ImVector.0, ptr %36, i32 0, i32 0
  %38 = load i32, ptr %37, align 8, !tbaa !70
  %39 = icmp sgt i32 %38, 1
  br i1 %39, label %40, label %64

40:                                               ; preds = %35
  %41 = getelementptr inbounds nuw %struct.ImDrawList, ptr %6, i32 0, i32 9
  %42 = load ptr, ptr %5, align 8, !tbaa !71
  %43 = call i32 @memcmp(ptr noundef %41, ptr noundef %42, i64 noundef 28) #19
  %44 = icmp eq i32 %43, 0
  br i1 %44, label %45, label %64

45:                                               ; preds = %40
  %46 = load ptr, ptr %5, align 8, !tbaa !71
  %47 = getelementptr inbounds nuw %struct.ImDrawCmd, ptr %46, i32 0, i32 3
  %48 = load i32, ptr %47, align 4, !tbaa !72
  %49 = load ptr, ptr %5, align 8, !tbaa !71
  %50 = getelementptr inbounds nuw %struct.ImDrawCmd, ptr %49, i32 0, i32 4
  %51 = load i32, ptr %50, align 8, !tbaa !74
  %52 = add i32 %48, %51
  %53 = load ptr, ptr %3, align 8, !tbaa !71
  %54 = getelementptr inbounds nuw %struct.ImDrawCmd, ptr %53, i32 0, i32 3
  %55 = load i32, ptr %54, align 4, !tbaa !72
  %56 = icmp eq i32 %52, %55
  br i1 %56, label %57, label %64

57:                                               ; preds = %45
  %58 = load ptr, ptr %5, align 8, !tbaa !71
  %59 = getelementptr inbounds nuw %struct.ImDrawCmd, ptr %58, i32 0, i32 5
  %60 = load ptr, ptr %59, align 8, !tbaa !78
  %61 = icmp eq ptr %60, null
  br i1 %61, label %62, label %64

62:                                               ; preds = %57
  %63 = getelementptr inbounds nuw %struct.ImDrawList, ptr %6, i32 0, i32 0
  call void @_ZN8ImVectorI9ImDrawCmdE8pop_backEv(ptr noundef nonnull align 8 dereferenceable(16) %63)
  store i32 1, ptr %4, align 4
  br label %69

64:                                               ; preds = %57, %45, %40, %35, %28
  %65 = getelementptr inbounds nuw %struct.ImDrawList, ptr %6, i32 0, i32 9
  %66 = getelementptr inbounds nuw %struct.ImDrawCmdHeader, ptr %65, i32 0, i32 0
  %67 = load ptr, ptr %3, align 8, !tbaa !71
  %68 = getelementptr inbounds nuw %struct.ImDrawCmd, ptr %67, i32 0, i32 0
  call void @llvm.memcpy.p0.p0.i64(ptr align 8 %68, ptr align 8 %66, i64 16, i1 false), !tbaa.struct !11
  store i32 0, ptr %4, align 4
  br label %69

69:                                               ; preds = %64, %62
  call void @llvm.lifetime.end.p0(i64 8, ptr %5) #17
  br label %70

70:                                               ; preds = %69, %27
  call void @llvm.lifetime.end.p0(i64 8, ptr %3) #17
  %71 = load i32, ptr %4, align 4
  switch i32 %71, label %73 [
    i32 0, label %72
    i32 1, label %72
  ]

72:                                               ; preds = %70, %70
  ret void

73:                                               ; preds = %70
  unreachable
}