; Function Attrs: mustprogress uwtable
define dso_local void @_ZN10ImDrawList18_OnChangedClipRectEv(ptr noundef nonnull align 8 captures(none) dereferenceable(200) %0) local_unnamed_addr #9 align 2 {
  %.sroa.0.i = alloca %struct.ImVec4, align 8
  %2 = getelementptr inbounds nuw i8, ptr %0, i64 8
  %3 = load ptr, ptr %2, align 8, !tbaa !67
  %4 = load i32, ptr %0, align 8, !tbaa !66
  %5 = sext i32 %4 to i64
  %6 = getelementptr %struct.ImDrawCmd, ptr %3, i64 %5
  %7 = getelementptr i8, ptr %6, i64 -56
  %8 = getelementptr i8, ptr %6, i64 -24
  %9 = load i32, ptr %8, align 8, !tbaa !68
  %.not = icmp eq i32 %9, 0
  br i1 %.not, label %43, label %10

10:                                               ; preds = %1
  %11 = getelementptr inbounds nuw i8, ptr %0, i64 96
  %bcmp = tail call i32 @bcmp(ptr noundef nonnull dereferenceable(16) %7, ptr noundef nonnull dereferenceable(16) %11, i64 16)
  %.not11 = icmp eq i32 %bcmp, 0
  br i1 %.not11, label %.thread, label %12

12:                                               ; preds = %10
  call void @llvm.lifetime.start.p0(i64 16, ptr nonnull %.sroa.0.i)
  call void @llvm.memcpy.p0.p0.i64(ptr noundef nonnull align 8 dereferenceable(16) %.sroa.0.i, ptr noundef nonnull align 8 dereferenceable(16) %11, i64 16, i1 false), !tbaa.struct !8
  %13 = getelementptr inbounds nuw i8, ptr %0, i64 112
  %14 = load ptr, ptr %13, align 8, !tbaa !84
  %15 = getelementptr inbounds nuw i8, ptr %0, i64 120
  %16 = load i32, ptr %15, align 8, !tbaa !85
  %17 = getelementptr inbounds nuw i8, ptr %0, i64 16
  %18 = load i32, ptr %17, align 8, !tbaa !72
  %19 = getelementptr inbounds nuw i8, ptr %0, i64 4
  %20 = load i32, ptr %19, align 4, !tbaa !41
  %21 = icmp eq i32 %4, %20
  br i1 %21, label %22, label %_ZN10ImDrawList10AddDrawCmdEv.exit

22:                                               ; preds = %12
  %23 = add nsw i32 %4, 1
  %.not.i.i.i = icmp eq i32 %4, 0
  br i1 %.not.i.i.i, label %_ZNK8ImVectorI9ImDrawCmdE14_grow_capacityEi.exit.i.i, label %24

24:                                               ; preds = %22
  %25 = sdiv i32 %4, 2
  %26 = add nsw i32 %25, %4
  br label %_ZNK8ImVectorI9ImDrawCmdE14_grow_capacityEi.exit.i.i

_ZNK8ImVectorI9ImDrawCmdE14_grow_capacityEi.exit.i.i: ; preds = %24, %22
  %27 = phi i32 [ %26, %24 ], [ 8, %22 ]
  %28 = tail call noundef i32 @llvm.smax.i32(i32 %27, i32 %23)
  %29 = sext i32 %28 to i64
  %30 = mul nsw i64 %29, 56
  %31 = tail call noundef ptr @_ZN5ImGui8MemAllocEm(i64 noundef %30)
  %32 = load ptr, ptr %2, align 8, !tbaa !42
  %.not6.i.i.i = icmp eq ptr %32, null
  br i1 %.not6.i.i.i, label %38, label %33

33:                                               ; preds = %_ZNK8ImVectorI9ImDrawCmdE14_grow_capacityEi.exit.i.i
  %34 = load i32, ptr %0, align 8, !tbaa !43
  %35 = sext i32 %34 to i64
  %36 = mul nsw i64 %35, 56
  tail call void @llvm.memcpy.p0.p0.i64(ptr align 8 %31, ptr nonnull align 8 %32, i64 %36, i1 false)
  %37 = load ptr, ptr %2, align 8, !tbaa !42
  tail call void @_ZN5ImGui7MemFreeEPv(ptr noundef %37)
  br label %38

38:                                               ; preds = %33, %_ZNK8ImVectorI9ImDrawCmdE14_grow_capacityEi.exit.i.i
  store ptr %31, ptr %2, align 8, !tbaa !42
  store i32 %28, ptr %19, align 4, !tbaa !41
  %.pre3.i.i = load i32, ptr %0, align 8, !tbaa !43
  %.pre = sext i32 %.pre3.i.i to i64
  br label %_ZN10ImDrawList10AddDrawCmdEv.exit

_ZN10ImDrawList10AddDrawCmdEv.exit:               ; preds = %12, %38
  %.pre-phi = phi i64 [ %5, %12 ], [ %.pre, %38 ]
  %39 = phi ptr [ %3, %12 ], [ %31, %38 ]
  %40 = getelementptr inbounds %struct.ImDrawCmd, ptr %39, i64 %.pre-phi
  call void @llvm.memcpy.p0.p0.i64(ptr noundef nonnull align 8 dereferenceable(16) %40, ptr noundef nonnull align 8 dereferenceable(16) %.sroa.0.i, i64 16, i1 false)
  %.sroa.5.0..sroa_idx.i = getelementptr inbounds nuw i8, ptr %40, i64 16
  store ptr %14, ptr %.sroa.5.0..sroa_idx.i, align 8
  %.sroa.6.0..sroa_idx.i = getelementptr inbounds nuw i8, ptr %40, i64 24
  store i32 %16, ptr %.sroa.6.0..sroa_idx.i, align 8
  %.sroa.7.0..sroa_idx.i = getelementptr inbounds nuw i8, ptr %40, i64 28
  store i32 %18, ptr %.sroa.7.0..sroa_idx.i, align 4
  %.sroa.8.0..sroa_idx.i = getelementptr inbounds nuw i8, ptr %40, i64 32
  tail call void @llvm.memset.p0.i64(ptr noundef nonnull align 8 dereferenceable(24) %.sroa.8.0..sroa_idx.i, i8 0, i64 24, i1 false)
  %41 = load i32, ptr %0, align 8, !tbaa !43
  %42 = add nsw i32 %41, 1
  store i32 %42, ptr %0, align 8, !tbaa !43
  call void @llvm.lifetime.end.p0(i64 16, ptr nonnull %.sroa.0.i)
  br label %65

43:                                               ; preds = %1
  %44 = icmp sgt i32 %4, 1
  br i1 %44, label %45, label %.thread

45:                                               ; preds = %43
  %46 = getelementptr i8, ptr %6, i64 -112
  %47 = getelementptr inbounds nuw i8, ptr %0, i64 96
  %bcmp12 = tail call i32 @bcmp(ptr noundef nonnull dereferenceable(28) %47, ptr noundef nonnull dereferenceable(28) %46, i64 28)
  %48 = icmp eq i32 %bcmp12, 0
  br i1 %48, label %49, label %.thread

49:                                               ; preds = %45
  %50 = getelementptr i8, ptr %6, i64 -84
  %51 = load i32, ptr %50, align 4, !tbaa !71
  %52 = getelementptr i8, ptr %6, i64 -80
  %53 = load i32, ptr %52, align 8, !tbaa !68
  %54 = add i32 %53, %51
  %55 = getelementptr i8, ptr %6, i64 -28
  %56 = load i32, ptr %55, align 4, !tbaa !71
  %57 = icmp eq i32 %54, %56
  br i1 %57, label %58, label %.thread

58:                                               ; preds = %49
  %59 = getelementptr i8, ptr %6, i64 -72
  %60 = load ptr, ptr %59, align 8, !tbaa !70
  %61 = icmp eq ptr %60, null
  br i1 %61, label %62, label %.thread

62:                                               ; preds = %58
  %63 = add nsw i32 %4, -1
  store i32 %63, ptr %0, align 8, !tbaa !43
  br label %65

.thread:                                          ; preds = %10, %58, %49, %45, %43
  %64 = getelementptr inbounds nuw i8, ptr %0, i64 96
  tail call void @llvm.memcpy.p0.p0.i64(ptr noundef nonnull align 8 dereferenceable(16) %7, ptr noundef nonnull align 8 dereferenceable(16) %64, i64 16, i1 false), !tbaa.struct !8
  br label %65

65:                                               ; preds = %62, %.thread, %_ZN10ImDrawList10AddDrawCmdEv.exit
  ret void
}